target datalayout = "e-m:e-p270:32:32-p271:32:32-p272:64:64-i64:64-i128:128-f80:128-n8:16:32:64-S128"
target triple = "x86_64-pc-linux-gnu"

%"struct.absl::cord_internal::CordRep" = type { i64, %"class.absl::cord_internal::RefcountAndFlags", i8, [3 x i8] }
%"class.absl::cord_internal::RefcountAndFlags" = type { %"struct.std::atomic" }
%"struct.std::atomic" = type { %"struct.std::__atomic_base" }
%"struct.std::__atomic_base" = type { i32 }
%"class.std::basic_string_view" = type { i64, ptr }
%"class.absl::cord_internal::CordRepBtree" = type { %"struct.absl::cord_internal::CordRep", [6 x ptr] }
%"struct.absl::cord_internal::CordRepSubstring" = type { %"struct.absl::cord_internal::CordRep", i64, ptr }
%"struct.absl::cord_internal::CordRepBtree::Position" = type { i64, i64 }
%"struct.absl::cord_internal::CordRepExternal" = type { %"struct.absl::cord_internal::CordRep", ptr, ptr }

; Function Attrs: inlinehint mustprogress nounwind uwtable
define linkonce_odr dso_local noundef ptr @_ZNK4absl13cord_internal7CordRep8externalEv(ptr noundef nonnull align 8 dereferenceable(16) %0) #8 comdat align 2 {
  %2 = alloca ptr, align 8
  store ptr %0, ptr %2, align 8, !tbaa !9
  %3 = load ptr, ptr %2, align 8
  ret ptr %3
}

; Function Attrs: mustprogress nounwind uwtable
define linkonce_odr dso_local void @_ZNSt17basic_string_viewIcSt11char_traitsIcEEC2EPKcm(ptr noundef nonnull align 8 dereferenceable(16) %0, ptr noundef %1, i64 noundef %2) unnamed_addr #6 comdat align 2 {
  %4 = alloca ptr, align 8
  %5 = alloca ptr, align 8
  %6 = alloca i64, align 8
  store ptr %0, ptr %4, align 8, !tbaa !52
  store ptr %1, ptr %5, align 8, !tbaa !49
  store i64 %2, ptr %6, align 8, !tbaa !19
  %7 = load ptr, ptr %4, align 8
  %8 = getelementptr inbounds nuw %"class.std::basic_string_view", ptr %7, i32 0, i32 0
  %9 = load i64, ptr %6, align 8, !tbaa !19
  store i64 %9, ptr %8, align 8, !tbaa !54
  %10 = getelementptr inbounds nuw %"class.std::basic_string_view", ptr %7, i32 0, i32 1
  %11 = load ptr, ptr %5, align 8, !tbaa !49
  store ptr %11, ptr %10, align 8, !tbaa !85
  ret void
}

; Function Attrs: mustprogress nounwind uwtable
define linkonce_odr dso_local noundef ptr @_ZNK4absl13cord_internal11CordRepFlat4DataEv(ptr noundef nonnull align 8 dereferenceable(16) %0) #6 comdat align 2 {
  %2 = alloca ptr, align 8
  store ptr %0, ptr %2, align 8, !tbaa !56
  %3 = load ptr, ptr %2, align 8
  %4 = getelementptr inbounds nuw %"struct.absl::cord_internal::CordRep", ptr %3, i32 0, i32 3
  %5 = getelementptr inbounds [3 x i8], ptr %4, i64 0, i64 0
  ret ptr %5
}

; Function Attrs: inlinehint mustprogress nounwind uwtable
define linkonce_odr dso_local noundef ptr @_ZNK4absl13cord_internal7CordRep4flatEv(ptr noundef nonnull align 8 dereferenceable(16) %0) #8 comdat align 2 {
  %2 = alloca ptr, align 8
  store ptr %0, ptr %2, align 8, !tbaa !9
  %3 = load ptr, ptr %2, align 8
  ret ptr %3
}

; Function Attrs: inlinehint mustprogress nounwind uwtable
define linkonce_odr dso_local noundef ptr @_ZNK4absl13cord_internal7CordRep9substringEv(ptr noundef nonnull align 8 dereferenceable(16) %0) #8 comdat align 2 {
  %2 = alloca ptr, align 8
  store ptr %0, ptr %2, align 8, !tbaa !9
  %3 = load ptr, ptr %2, align 8
  ret ptr %3
}

; Function Attrs: mustprogress nounwind uwtable
define linkonce_odr dso_local noundef zeroext i1 @_ZNK4absl13cord_internal7CordRep11IsSubstringEv(ptr noundef nonnull align 8 dereferenceable(16) %0) #6 comdat align 2 {
  %2 = alloca ptr, align 8
  store ptr %0, ptr %2, align 8, !tbaa !9
  %3 = load ptr, ptr %2, align 8
  %4 = getelementptr inbounds nuw %"struct.absl::cord_internal::CordRep", ptr %3, i32 0, i32 2
  %5 = load i8, ptr %4, align 4, !tbaa !79
  %6 = zext i8 %5 to i32
  %7 = icmp eq i32 %6, 1
  ret i1 %7
}

; Function Attrs: inlinehint mustprogress uwtable
define linkonce_odr dso_local { i64, ptr } @_ZN4absl13cord_internal8EdgeDataEPKNS0_7CordRepE(ptr noundef %0) #7 comdat {
  %2 = alloca %"class.std::basic_string_view", align 8
  %3 = alloca ptr, align 8
  %4 = alloca i64, align 8
  %5 = alloca i64, align 8
  store ptr %0, ptr %3, align 8, !tbaa !9
  call void @llvm.lifetime.start.p0(i64 8, ptr %4) #3
  store i64 0, ptr %4, align 8, !tbaa !19
  call void @llvm.lifetime.start.p0(i64 8, ptr %5) #3
  %6 = load ptr, ptr %3, align 8, !tbaa !9
  %7 = getelementptr inbounds nuw %"struct.absl::cord_internal::CordRep", ptr %6, i32 0, i32 0
  %8 = load i64, ptr %7, align 8, !tbaa !13
  store i64 %8, ptr %5, align 8, !tbaa !19
  %9 = load ptr, ptr %3, align 8, !tbaa !9
  %10 = call noundef zeroext i1 @_ZNK4absl13cord_internal7CordRep11IsSubstringEv(ptr noundef nonnull align 8 dereferenceable(16) %9)
  br i1 %10, label %11, label %20

11:                                               ; preds = %1
  %12 = load ptr, ptr %3, align 8, !tbaa !9
  %13 = call noundef ptr @_ZNK4absl13cord_internal7CordRep9substringEv(ptr noundef nonnull align 8 dereferenceable(16) %12)
  %14 = getelementptr inbounds nuw %"struct.absl::cord_internal::CordRepSubstring", ptr %13, i32 0, i32 1
  %15 = load i64, ptr %14, align 8, !tbaa !82
  store i64 %15, ptr %4, align 8, !tbaa !19
  %16 = load ptr, ptr %3, align 8, !tbaa !9
  %17 = call noundef ptr @_ZNK4absl13cord_internal7CordRep9substringEv(ptr noundef nonnull align 8 dereferenceable(16) %16)
  %18 = getelementptr inbounds nuw %"struct.absl::cord_internal::CordRepSubstring", ptr %17, i32 0, i32 2
  %19 = load ptr, ptr %18, align 8, !tbaa !84
  store ptr %19, ptr %3, align 8, !tbaa !9
  br label %20

20:                                               ; preds = %11, %1
  %21 = load ptr, ptr %3, align 8, !tbaa !9
  %22 = getelementptr inbounds nuw %"struct.absl::cord_internal::CordRep", ptr %21, i32 0, i32 2
  %23 = load i8, ptr %22, align 4, !tbaa !79
  %24 = zext i8 %23 to i32
  %25 = icmp sge i32 %24, 6
  br i1 %25, label %26, label %33

26:                                               ; preds = %20
  %27 = load ptr, ptr %3, align 8, !tbaa !9
  %28 = call noundef ptr @_ZNK4absl13cord_internal7CordRep4flatEv(ptr noundef nonnull align 8 dereferenceable(16) %27)
  %29 = call noundef ptr @_ZNK4absl13cord_internal11CordRepFlat4DataEv(ptr noundef nonnull align 8 dereferenceable(16) %28)
  %30 = load i64, ptr %4, align 8, !tbaa !19
  %31 = getelementptr inbounds nuw i8, ptr %29, i64 %30
  %32 = load i64, ptr %5, align 8, !tbaa !19
  call void @_ZNSt17basic_string_viewIcSt11char_traitsIcEEC2EPKcm(ptr noundef nonnull align 8 dereferenceable(16) %2, ptr noundef %31, i64 noundef %32) #3
  br label %41

33:                                               ; preds = %20
  %34 = load ptr, ptr %3, align 8, !tbaa !9
  %35 = call noundef ptr @_ZNK4absl13cord_internal7CordRep8externalEv(ptr noundef nonnull align 8 dereferenceable(16) %34)
  %36 = getelementptr inbounds nuw %"struct.absl::cord_internal::CordRepExternal", ptr %35, i32 0, i32 1
  %37 = load ptr, ptr %36, align 8, !tbaa !123
  %38 = load i64, ptr %4, align 8, !tbaa !19
  %39 = getelementptr inbounds nuw i8, ptr %37, i64 %38
  %40 = load i64, ptr %5, align 8, !tbaa !19
  call void @_ZNSt17basic_string_viewIcSt11char_traitsIcEEC2EPKcm(ptr noundef nonnull align 8 dereferenceable(16) %2, ptr noundef %39, i64 noundef %40) #3
  br label %41

41:                                               ; preds = %33, %26
  call void @llvm.lifetime.end.p0(i64 8, ptr %5) #3
  call void @llvm.lifetime.end.p0(i64 8, ptr %4) #3
  %42 = load { i64, ptr }, ptr %2, align 8
  ret { i64, ptr } %42
}

; Function Attrs: mustprogress nounwind uwtable
define linkonce_odr dso_local noundef i64 @_ZNK4absl13cord_internal12CordRepBtree5beginEv(ptr noundef nonnull align 8 dereferenceable(64) %0) #6 comdat align 2 {
  %2 = alloca ptr, align 8
  store ptr %0, ptr %2, align 8, !tbaa !4
  %3 = load ptr, ptr %2, align 8
  %4 = getelementptr inbounds nuw %"struct.absl::cord_internal::CordRep", ptr %3, i32 0, i32 3
  %5 = getelementptr inbounds [3 x i8], ptr %4, i64 0, i64 1
  %6 = load i8, ptr %5, align 1, !tbaa !23
  %7 = zext i8 %6 to i64
  ret i64 %7
}

; Function Attrs: inlinehint mustprogress nounwind uwtable
define linkonce_odr dso_local noundef ptr @_ZN4absl13cord_internal7CordRep5btreeEv(ptr noundef nonnull align 8 dereferenceable(16) %0) #8 comdat align 2 {
  %2 = alloca ptr, align 8
  store ptr %0, ptr %2, align 8, !tbaa !9
  %3 = load ptr, ptr %2, align 8
  ret ptr %3
}

; Function Attrs: inlinehint mustprogress nounwind uwtable
define linkonce_odr dso_local noundef ptr @_ZNK4absl13cord_internal12CordRepBtree4EdgeEm(ptr noundef nonnull align 8 dereferenceable(64) %0, i64 noundef %1) #8 comdat align 2 {
  %3 = alloca ptr, align 8
  %4 = alloca i64, align 8
  store ptr %0, ptr %3, align 8, !tbaa !4
  store i64 %1, ptr %4, align 8, !tbaa !19
  %5 = load ptr, ptr %3, align 8
  %6 = getelementptr inbounds nuw %"class.absl::cord_internal::CordRepBtree", ptr %5, i32 0, i32 1
  %7 = load i64, ptr %4, align 8, !tbaa !19
  %8 = getelementptr inbounds nuw [6 x ptr], ptr %6, i64 0, i64 %7
  %9 = load ptr, ptr %8, align 8, !tbaa !9
  ret ptr %9
}

; Function Attrs: mustprogress nounwind uwtable
define linkonce_odr dso_local noundef nonnull align 1 dereferenceable(1) ptr @_ZNKSt17basic_string_viewIcSt11char_traitsIcEEixEm(ptr noundef nonnull align 8 dereferenceable(16) %0, i64 noundef %1) #6 comdat align 2 {
  %3 = alloca ptr, align 8
  %4 = alloca i64, align 8
  store ptr %0, ptr %3, align 8, !tbaa !52
  store i64 %1, ptr %4, align 8, !tbaa !19
  %5 = load ptr, ptr %3, align 8
  br label %6

6:                                                ; preds = %2
  br label %7

7:                                                ; preds = %6
  br label %8

8:                                                ; preds = %7
  %9 = getelementptr inbounds nuw %"class.std::basic_string_view", ptr %5, i32 0, i32 1
  %10 = load ptr, ptr %9, align 8, !tbaa !85
  %11 = load i64, ptr %4, align 8, !tbaa !19
  %12 = getelementptr inbounds nuw i8, ptr %10, i64 %11
  ret ptr %12
}

; Function Attrs: inlinehint mustprogress uwtable
define linkonce_odr dso_local { i64, ptr } @_ZNK4absl13cord_internal12CordRepBtree4DataEm(ptr noundef nonnull align 8 dereferenceable(64) %0, i64 noundef %1) #7 comdat align 2 {
  %3 = alloca %"class.std::basic_string_view", align 8
  %4 = alloca ptr, align 8
  %5 = alloca i64, align 8
  store ptr %0, ptr %4, align 8, !tbaa !4
  store i64 %1, ptr %5, align 8, !tbaa !19
  %6 = load ptr, ptr %4, align 8
  %7 = load i64, ptr %5, align 8, !tbaa !19
  %8 = call noundef ptr @_ZNK4absl13cord_internal12CordRepBtree4EdgeEm(ptr noundef nonnull align 8 dereferenceable(64) %6, i64 noundef %7)
  %9 = call { i64, ptr } @_ZN4absl13cord_internal8EdgeDataEPKNS0_7CordRepE(ptr noundef %8)
  %10 = getelementptr inbounds nuw { i64, ptr }, ptr %3, i32 0, i32 0
  %11 = extractvalue { i64, ptr } %9, 0
  store i64 %11, ptr %10, align 8
  %12 = getelementptr inbounds nuw { i64, ptr }, ptr %3, i32 0, i32 1
  %13 = extractvalue { i64, ptr } %9, 1
  store ptr %13, ptr %12, align 8
  %14 = load { i64, ptr }, ptr %3, align 8
  ret { i64, ptr } %14
}

; Function Attrs: inlinehint mustprogress nounwind uwtable
define linkonce_odr dso_local { i64, i64 } @_ZNK4absl13cord_internal12CordRepBtree7IndexOfEm(ptr noundef nonnull align 8 dereferenceable(64) %0, i64 noundef %1) #8 comdat align 2 {
  %3 = alloca %"struct.absl::cord_internal::CordRepBtree::Position", align 8
  %4 = alloca ptr, align 8
  %5 = alloca i64, align 8
  %6 = alloca i64, align 8
  store ptr %0, ptr %4, align 8, !tbaa !4
  store i64 %1, ptr %5, align 8, !tbaa !19
  %7 = load ptr, ptr %4, align 8
  call void @llvm.lifetime.start.p0(i64 8, ptr %6) #3
  %8 = call noundef i64 @_ZNK4absl13cord_internal12CordRepBtree5beginEv(ptr noundef nonnull align 8 dereferenceable(64) %7)
  store i64 %8, ptr %6, align 8, !tbaa !19
  br label %9

9:                                                ; preds = %18, %2
  %10 = load i64, ptr %5, align 8, !tbaa !19
  %11 = getelementptr inbounds nuw %"class.absl::cord_internal::CordRepBtree", ptr %7, i32 0, i32 1
  %12 = load i64, ptr %6, align 8, !tbaa !19
  %13 = getelementptr inbounds nuw [6 x ptr], ptr %11, i64 0, i64 %12
  %14 = load ptr, ptr %13, align 8, !tbaa !9
  %15 = getelementptr inbounds nuw %"struct.absl::cord_internal::CordRep", ptr %14, i32 0, i32 0
  %16 = load i64, ptr %15, align 8, !tbaa !13
  %17 = icmp uge i64 %10, %16
  br i1 %17, label %18, label %28

18:                                               ; preds = %9
  %19 = getelementptr inbounds nuw %"class.absl::cord_internal::CordRepBtree", ptr %7, i32 0, i32 1
  %20 = load i64, ptr %6, align 8, !tbaa !19
  %21 = add i64 %20, 1
  store i64 %21, ptr %6, align 8, !tbaa !19
  %22 = getelementptr inbounds nuw [6 x ptr], ptr %19, i64 0, i64 %20
  %23 = load ptr, ptr %22, align 8, !tbaa !9
  %24 = getelementptr inbounds nuw %"struct.absl::cord_internal::CordRep", ptr %23, i32 0, i32 0
  %25 = load i64, ptr %24, align 8, !tbaa !13
  %26 = load i64, ptr %5, align 8, !tbaa !19
  %27 = sub i64 %26, %25
  store i64 %27, ptr %5, align 8, !tbaa !19
  br label %9, !llvm.loop !111

28:                                               ; preds = %9
  %29 = getelementptr inbounds nuw %"struct.absl::cord_internal::CordRepBtree::Position", ptr %3, i32 0, i32 0
  %30 = load i64, ptr %6, align 8, !tbaa !19
  store i64 %30, ptr %29, align 8, !tbaa !101
  %31 = getelementptr inbounds nuw %"struct.absl::cord_internal::CordRepBtree::Position", ptr %3, i32 0, i32 1
  %32 = load i64, ptr %5, align 8, !tbaa !19
  store i64 %32, ptr %31, align 8, !tbaa !103
  call void @llvm.lifetime.end.p0(i64 8, ptr %6) #3
  %33 = load { i64, i64 }, ptr %3, align 8
  ret { i64, i64 } %33
}

; Function Attrs: mustprogress nounwind uwtable
define linkonce_odr dso_local noundef i32 @_ZNK4absl13cord_internal12CordRepBtree6heightEv(ptr noundef nonnull align 8 dereferenceable(64) %0) #6 comdat align 2 {
  %2 = alloca ptr, align 8
  store ptr %0, ptr %2, align 8, !tbaa !4
  %3 = load ptr, ptr %2, align 8
  %4 = getelementptr inbounds nuw %"struct.absl::cord_internal::CordRep", ptr %3, i32 0, i32 3
  %5 = getelementptr inbounds [3 x i8], ptr %4, i64 0, i64 0
  %6 = load i8, ptr %5, align 1, !tbaa !23
  %7 = zext i8 %6 to i32
  ret i32 %7
}

; Function Attrs: mustprogress uwtable
define dso_local noundef signext i8 @_ZNK4absl13cord_internal12CordRepBtree12GetCharacterEm(ptr noundef nonnull align 8 dereferenceable(64) %0, i64 noundef %1) #4 align 2 {
  %3 = alloca i8, align 1
  %4 = alloca ptr, align 8
  %5 = alloca i64, align 8
  %6 = alloca ptr, align 8
  %7 = alloca i32, align 4
  %8 = alloca %"struct.absl::cord_internal::CordRepBtree::Position", align 8
  %9 = alloca %"class.std::basic_string_view", align 8
  %10 = alloca i32, align 4
  store ptr %0, ptr %4, align 8, !tbaa !4
  store i64 %1, ptr %5, align 8, !tbaa !19
  %11 = load ptr, ptr %4, align 8
  call void @llvm.lifetime.start.p0(i64 8, ptr %6) #3
  store ptr %11, ptr %6, align 8, !tbaa !4
  call void @llvm.lifetime.start.p0(i64 4, ptr %7) #3
  %12 = load ptr, ptr %6, align 8, !tbaa !4
  %13 = call noundef i32 @_ZNK4absl13cord_internal12CordRepBtree6heightEv(ptr noundef nonnull align 8 dereferenceable(64) %12)
  store i32 %13, ptr %7, align 4, !tbaa !11
  br label %14

14:                                               ; preds = %48, %2
  call void @llvm.lifetime.start.p0(i64 16, ptr %8) #3
  %15 = load ptr, ptr %6, align 8, !tbaa !4
  %16 = load i64, ptr %5, align 8, !tbaa !19
  %17 = call { i64, i64 } @_ZNK4absl13cord_internal12CordRepBtree7IndexOfEm(ptr noundef nonnull align 8 dereferenceable(64) %15, i64 noundef %16)
  %18 = getelementptr inbounds nuw { i64, i64 }, ptr %8, i32 0, i32 0
  %19 = extractvalue { i64, i64 } %17, 0
  store i64 %19, ptr %18, align 8
  %20 = getelementptr inbounds nuw { i64, i64 }, ptr %8, i32 0, i32 1
  %21 = extractvalue { i64, i64 } %17, 1
  store i64 %21, ptr %20, align 8
  %22 = load i32, ptr %7, align 4, !tbaa !11
  %23 = add nsw i32 %22, -1
  store i32 %23, ptr %7, align 4, !tbaa !11
  %24 = icmp slt i32 %23, 0
  br i1 %24, label %25, label %38

25:                                               ; preds = %14
  call void @llvm.lifetime.start.p0(i64 16, ptr %9) #3
  %26 = load ptr, ptr %6, align 8, !tbaa !4
  %27 = getelementptr inbounds nuw %"struct.absl::cord_internal::CordRepBtree::Position", ptr %8, i32 0, i32 0
  %28 = load i64, ptr %27, align 8, !tbaa !101
  %29 = call { i64, ptr } @_ZNK4absl13cord_internal12CordRepBtree4DataEm(ptr noundef nonnull align 8 dereferenceable(64) %26, i64 noundef %28)
  %30 = getelementptr inbounds nuw { i64, ptr }, ptr %9, i32 0, i32 0
  %31 = extractvalue { i64, ptr } %29, 0
  store i64 %31, ptr %30, align 8
  %32 = getelementptr inbounds nuw { i64, ptr }, ptr %9, i32 0, i32 1
  %33 = extractvalue { i64, ptr } %29, 1
  store ptr %33, ptr %32, align 8
  %34 = getelementptr inbounds nuw %"struct.absl::cord_internal::CordRepBtree::Position", ptr %8, i32 0, i32 1
  %35 = load i64, ptr %34, align 8, !tbaa !103
  %36 = call noundef nonnull align 1 dereferenceable(1) ptr @_ZNKSt17basic_string_viewIcSt11char_traitsIcEEixEm(ptr noundef nonnull align 8 dereferenceable(16) %9, i64 noundef %35) #3
  %37 = load i8, ptr %36, align 1, !tbaa !23
  store i8 %37, ptr %3, align 1
  call void @llvm.lifetime.end.p0(i64 16, ptr %9) #3
  store i32 1, ptr %10, align 4
  br label %46

38:                                               ; preds = %14
  %39 = getelementptr inbounds nuw %"struct.absl::cord_internal::CordRepBtree::Position", ptr %8, i32 0, i32 1
  %40 = load i64, ptr %39, align 8, !tbaa !103
  store i64 %40, ptr %5, align 8, !tbaa !19
  %41 = load ptr, ptr %6, align 8, !tbaa !4
  %42 = getelementptr inbounds nuw %"struct.absl::cord_internal::CordRepBtree::Position", ptr %8, i32 0, i32 0
  %43 = load i64, ptr %42, align 8, !tbaa !101
  %44 = call noundef ptr @_ZNK4absl13cord_internal12CordRepBtree4EdgeEm(ptr noundef nonnull align 8 dereferenceable(64) %41, i64 noundef %43)
  %45 = call noundef ptr @_ZN4absl13cord_internal7CordRep5btreeEv(ptr noundef nonnull align 8 dereferenceable(16) %44)
  store ptr %45, ptr %6, align 8, !tbaa !4
  store i32 0, ptr %10, align 4
  br label %46

46:                                               ; preds = %38, %25
  call void @llvm.lifetime.end.p0(i64 16, ptr %8) #3
  %47 = load i32, ptr %10, align 4
  switch i32 %47, label %49 [
    i32 0, label %48
  ]

48:                                               ; preds = %46
  br label %14, !llvm.loop !125

49:                                               ; preds = %46
  call void @llvm.lifetime.end.p0(i64 4, ptr %7) #3
  call void @llvm.lifetime.end.p0(i64 8, ptr %6) #3
  %50 = load i8, ptr %3, align 1
  ret i8 %50
}