; Function Attrs: mustprogress nofree norecurse nosync nounwind willreturn memory(read, inaccessiblemem: none) uwtable
define dso_local noundef signext i8 @_ZNK4absl13cord_internal12CordRepBtree12GetCharacterEm(ptr noundef nonnull readonly align 8 captures(none) dereferenceable(64) %0, i64 noundef %1) local_unnamed_addr #9 align 2 {
  %3 = getelementptr inbounds nuw i8, ptr %0, i64 13
  %4 = load i8, ptr %3, align 1, !tbaa !4
  %5 = zext i8 %4 to i32
  br label %6

6:                                                ; preds = %_ZNK4absl13cord_internal12CordRepBtree7IndexOfEm.exit, %2
  %.014 = phi ptr [ %0, %2 ], [ %20, %_ZNK4absl13cord_internal12CordRepBtree7IndexOfEm.exit ]
  %.013 = phi i32 [ %5, %2 ], [ %22, %_ZNK4absl13cord_internal12CordRepBtree7IndexOfEm.exit ]
  %.011 = phi i64 [ %1, %2 ], [ %.06.lcssa.i, %_ZNK4absl13cord_internal12CordRepBtree7IndexOfEm.exit ]
  %7 = getelementptr inbounds nuw i8, ptr %.014, i64 14
  %8 = load i8, ptr %7, align 1, !tbaa !4
  %9 = zext i8 %8 to i64
  %10 = getelementptr inbounds nuw i8, ptr %.014, i64 16
  %11 = getelementptr inbounds nuw [6 x ptr], ptr %10, i64 0, i64 %9
  %12 = load ptr, ptr %11, align 8, !tbaa !17
  %13 = load i64, ptr %12, align 8, !tbaa !7
  %.not8.i = icmp ult i64 %.011, %13
  br i1 %.not8.i, label %_ZNK4absl13cord_internal12CordRepBtree7IndexOfEm.exit, label %.lr.ph.i

.lr.ph.i:                                         ; preds = %6, %.lr.ph.i
  %14 = phi i64 [ %19, %.lr.ph.i ], [ %13, %6 ]
  %.010.i = phi i64 [ %15, %.lr.ph.i ], [ %9, %6 ]
  %.069.i = phi i64 [ %16, %.lr.ph.i ], [ %.011, %6 ]
  %15 = add i64 %.010.i, 1
  %16 = sub nuw i64 %.069.i, %14
  %17 = getelementptr inbounds nuw [6 x ptr], ptr %10, i64 0, i64 %15
  %18 = load ptr, ptr %17, align 8, !tbaa !17
  %19 = load i64, ptr %18, align 8, !tbaa !7
  %.not.i = icmp ult i64 %16, %19
  br i1 %.not.i, label %_ZNK4absl13cord_internal12CordRepBtree7IndexOfEm.exit, label %.lr.ph.i, !llvm.loop !84

_ZNK4absl13cord_internal12CordRepBtree7IndexOfEm.exit: ; preds = %.lr.ph.i, %6
  %20 = phi ptr [ %12, %6 ], [ %18, %.lr.ph.i ]
  %.06.lcssa.i = phi i64 [ %.011, %6 ], [ %16, %.lr.ph.i ]
  %21 = icmp sgt i32 %.013, 0
  %22 = add nsw i32 %.013, -1
  br i1 %21, label %6, label %23, !llvm.loop !96

23:                                               ; preds = %_ZNK4absl13cord_internal12CordRepBtree7IndexOfEm.exit
  %24 = getelementptr inbounds nuw i8, ptr %20, i64 12
  %25 = load i8, ptr %24, align 4, !tbaa !25
  %26 = icmp eq i8 %25, 1
  br i1 %26, label %27, label %32

27:                                               ; preds = %23
  %28 = getelementptr inbounds nuw i8, ptr %20, i64 16
  %29 = load i64, ptr %28, align 8, !tbaa !72
  %30 = getelementptr inbounds nuw i8, ptr %20, i64 24
  %31 = load ptr, ptr %30, align 8, !tbaa !74
  %.phi.trans.insert.i.i = getelementptr inbounds nuw i8, ptr %31, i64 12
  %.pre.i.i = load i8, ptr %.phi.trans.insert.i.i, align 4, !tbaa !25
  br label %32

32:                                               ; preds = %27, %23
  %33 = phi i8 [ %.pre.i.i, %27 ], [ %25, %23 ]
  %.010.i.i = phi i64 [ %29, %27 ], [ 0, %23 ]
  %.0.i.i = phi ptr [ %31, %27 ], [ %20, %23 ]
  %34 = icmp ugt i8 %33, 5
  br i1 %34, label %35, label %37

35:                                               ; preds = %32
  %36 = getelementptr inbounds nuw i8, ptr %.0.i.i, i64 13
  br label %40

37:                                               ; preds = %32
  %38 = getelementptr inbounds nuw i8, ptr %.0.i.i, i64 16
  %39 = load ptr, ptr %38, align 8, !tbaa !75
  br label %40

40:                                               ; preds = %37, %35
  %.pn.i.i = phi ptr [ %36, %35 ], [ %39, %37 ]
  %.sroa.3.0.i.i = getelementptr inbounds nuw i8, ptr %.pn.i.i, i64 %.010.i.i
  %41 = getelementptr inbounds nuw i8, ptr %.sroa.3.0.i.i, i64 %.06.lcssa.i
  %42 = load i8, ptr %41, align 1, !tbaa !4
  ret i8 %42
}